; Function Attrs: nounwind uwtable
define internal void @lv_obj_delete_async_cb(ptr noundef %0) #0 {
  %.not = icmp eq ptr %0, null
  br i1 %.not, label %.preheader, label %2

.preheader:                                       ; preds = %1, %.preheader
  br label %.preheader

2:                                                ; preds = %1
  tail call void @lv_obj_delete(ptr noundef nonnull %0)
  ret void
}